; Function Attrs: mustprogress nounwind uwtable
define hidden void @_ZN10JavaThread37handle_special_runtime_exit_conditionEv(ptr noundef nonnull align 8 dereferenceable(1800) %0) local_unnamed_addr #0 align 2 {
  %2 = getelementptr inbounds i8, ptr %0, i64 1088
  %3 = load volatile i32, ptr %2, align 8
  %4 = and i32 %3, 8
  %.not = icmp eq i32 %4, 0
  br i1 %.not, label %7, label %5

5:                                                ; preds = %1
  %6 = getelementptr inbounds i8, ptr %0, i64 928
  tail call void @_ZN15JavaFrameAnchor13make_walkableEv(ptr noundef nonnull align 8 dereferenceable(24) %6) #21
  tail call void @_ZN10JavaThread30wait_for_object_deoptimizationEv(ptr noundef nonnull align 8 dereferenceable(1800) %0)
  br label %7

7:                                                ; preds = %5, %1
  %8 = load volatile i32, ptr %2, align 8
  %9 = and i32 %8, 4
  %.not1 = icmp eq i32 %9, 0
  br i1 %.not1, label %11, label %10

10:                                               ; preds = %7
  tail call void @_ZN17JfrThreadSampling21on_javathread_suspendEP10JavaThread(ptr noundef nonnull %0) #21
  br label %11

11:                                               ; preds = %10, %7
  ret void
}